target datalayout = "e-m:e-p270:32:32-p271:32:32-p272:64:64-i64:64-i128:128-f80:128-n8:16:32:64-S128"
target triple = "x86_64-pc-linux-gnu"

%struct.Node = type { i32 }
%struct.ParseState = type { ptr, ptr, i32, i32, ptr, ptr, ptr, ptr, ptr, ptr, i8, ptr, ptr, ptr, ptr, ptr, ptr, i8, ptr, i32, i32, ptr, ptr, i8, i8, ptr, i8, i8, i8, i8, i8, ptr, ptr, ptr, ptr, ptr, ptr }
%struct.List = type { i32, i32, i32, ptr, [0 x %union.ListCell] }
%union.ListCell = type { ptr }
%struct.ParseNamespaceItem = type { ptr, ptr, i32, ptr, ptr, i8, i8, i8, i8, i32 }
%struct.Expr = type { i32 }
%struct.Var = type { %struct.Expr, i32, i16, i32, i32, i32, ptr, i32, i32, i32, i16, i32 }
%struct.RelationData = type { %struct.RelFileLocator, ptr, i32, i32, i8, i8, i8, i8, i8, i32, i32, i32, i32, ptr, ptr, i32, %struct.LockInfoData, ptr, ptr, ptr, ptr, ptr, i8, ptr, ptr, ptr, ptr, ptr, ptr, i32, ptr, i8, ptr, ptr, i32, i8, i32, ptr, i8, ptr, ptr, ptr, ptr, ptr, ptr, ptr, i32, ptr, ptr, ptr, ptr, ptr, ptr, ptr, ptr, ptr, ptr, ptr, ptr, ptr, ptr, ptr, ptr, ptr, ptr, ptr, i32, i8, ptr }
%struct.RelFileLocator = type { i32, i32, i32 }
%struct.LockInfoData = type { %struct.LockRelId }
%struct.LockRelId = type { i32, i32 }
%struct.FormData_pg_attribute = type { i32, %struct.nameData, i32, i16, i16, i32, i16, i8, i8, i8, i8, i8, i8, i8, i8, i8, i8, i8, i16, i32 }
%struct.nameData = type { [64 x i8] }
%struct.SetToDefault = type { %struct.Expr, i32, i32, i32, i32 }
%struct.TupleDescData = type { i32, i32, i32, i32, ptr, [0 x %struct.CompactAttribute] }
%struct.CompactAttribute = type { i32, i16, i8, i8, i8, i8, i8, i8, i8 }

@.str = private unnamed_addr constant [36 x i8] c"cannot assign to system column \22%s\22\00", align 1
@.str.1 = private unnamed_addr constant [15 x i8] c"parse_target.c\00", align 1
@__func__.transformAssignedExpr = private unnamed_addr constant [22 x i8] c"transformAssignedExpr\00", align 1
@.str.2 = private unnamed_addr constant [39 x i8] c"cannot set an array element to DEFAULT\00", align 1
@.str.3 = private unnamed_addr constant [33 x i8] c"cannot set a subfield to DEFAULT\00", align 1
@.str.4 = private unnamed_addr constant [55 x i8] c"column \22%s\22 is of type %s but expression is of type %s\00", align 1
@.str.5 = private unnamed_addr constant [49 x i8] c"You will need to rewrite or cast the expression.\00", align 1

; Function Attrs: inlinehint nounwind uwtable
define internal ptr @list_head(ptr noundef %0) #4 {
  %2 = alloca ptr, align 8
  store ptr %0, ptr %2, align 8
  %3 = load ptr, ptr %2, align 8
  %4 = icmp ne ptr %3, null
  br i1 %4, label %5, label %10

5:                                                ; preds = %1
  %6 = load ptr, ptr %2, align 8
  %7 = getelementptr inbounds nuw %struct.List, ptr %6, i32 0, i32 3
  %8 = load ptr, ptr %7, align 8
  %9 = getelementptr inbounds %union.ListCell, ptr %8, i64 0
  br label %11

10:                                               ; preds = %1
  br label %11

11:                                               ; preds = %10, %5
  %12 = phi ptr [ %9, %5 ], [ null, %10 ]
  ret ptr %12
}

; Function Attrs: inlinehint nounwind uwtable
define internal ptr @list_nth_cell(ptr noundef %0, i32 noundef %1) #4 {
  %3 = alloca ptr, align 8
  %4 = alloca i32, align 4
  store ptr %0, ptr %3, align 8
  store i32 %1, ptr %4, align 4
  %5 = load ptr, ptr %3, align 8
  %6 = getelementptr inbounds nuw %struct.List, ptr %5, i32 0, i32 3
  %7 = load ptr, ptr %6, align 8
  %8 = load i32, ptr %4, align 4
  %9 = sext i32 %8 to i64
  %10 = getelementptr inbounds %union.ListCell, ptr %7, i64 %9
  ret ptr %10
}

; Function Attrs: inlinehint nounwind uwtable
define internal ptr @TupleDescAttr(ptr noundef %0, i32 noundef %1) #4 {
  %3 = alloca ptr, align 8
  %4 = alloca i32, align 4
  %5 = alloca ptr, align 8
  store ptr %0, ptr %3, align 8
  store i32 %1, ptr %4, align 4
  call void @llvm.lifetime.start.p0(i64 8, ptr %5) #8
  %6 = load ptr, ptr %3, align 8
  %7 = load ptr, ptr %3, align 8
  %8 = getelementptr inbounds nuw %struct.TupleDescData, ptr %7, i32 0, i32 0
  %9 = load i32, ptr %8, align 8
  %10 = sext i32 %9 to i64
  %11 = mul i64 %10, 16
  %12 = add i64 24, %11
  %13 = getelementptr inbounds nuw i8, ptr %6, i64 %12
  store ptr %13, ptr %5, align 8
  %14 = load ptr, ptr %5, align 8
  %15 = load i32, ptr %4, align 4
  %16 = sext i32 %15 to i64
  %17 = getelementptr inbounds %struct.FormData_pg_attribute, ptr %14, i64 %16
  call void @llvm.lifetime.end.p0(i64 8, ptr %5) #8
  ret ptr %17
}

; Function Attrs: nounwind uwtable
define dso_local ptr @transformAssignedExpr(ptr noundef %0, ptr noundef %1, i32 noundef %2, ptr noundef %3, i32 noundef %4, ptr noundef %5, i32 noundef %6) #0 {
  %8 = alloca ptr, align 8
  %9 = alloca ptr, align 8
  %10 = alloca i32, align 4
  %11 = alloca ptr, align 8
  %12 = alloca i32, align 4
  %13 = alloca ptr, align 8
  %14 = alloca i32, align 4
  %15 = alloca ptr, align 8
  %16 = alloca i32, align 4
  %17 = alloca i32, align 4
  %18 = alloca i32, align 4
  %19 = alloca i32, align 4
  %20 = alloca i32, align 4
  %21 = alloca ptr, align 8
  %22 = alloca ptr, align 8
  %23 = alloca ptr, align 8
  %24 = alloca ptr, align 8
  store ptr %0, ptr %8, align 8
  store ptr %1, ptr %9, align 8
  store i32 %2, ptr %10, align 4
  store ptr %3, ptr %11, align 8
  store i32 %4, ptr %12, align 4
  store ptr %5, ptr %13, align 8
  store i32 %6, ptr %14, align 4
  call void @llvm.lifetime.start.p0(i64 8, ptr %15) #8
  %25 = load ptr, ptr %8, align 8
  %26 = getelementptr inbounds nuw %struct.ParseState, ptr %25, i32 0, i32 14
  %27 = load ptr, ptr %26, align 8
  store ptr %27, ptr %15, align 8
  call void @llvm.lifetime.start.p0(i64 4, ptr %16) #8
  call void @llvm.lifetime.start.p0(i64 4, ptr %17) #8
  call void @llvm.lifetime.start.p0(i64 4, ptr %18) #8
  call void @llvm.lifetime.start.p0(i64 4, ptr %19) #8
  call void @llvm.lifetime.start.p0(i64 4, ptr %20) #8
  %28 = load ptr, ptr %8, align 8
  %29 = getelementptr inbounds nuw %struct.ParseState, ptr %28, i32 0, i32 19
  %30 = load i32, ptr %29, align 8
  store i32 %30, ptr %20, align 4
  %31 = load i32, ptr %10, align 4
  %32 = load ptr, ptr %8, align 8
  %33 = getelementptr inbounds nuw %struct.ParseState, ptr %32, i32 0, i32 19
  store i32 %31, ptr %33, align 8
  %34 = load i32, ptr %12, align 4
  %35 = icmp sle i32 %34, 0
  br i1 %35, label %36, label %52

36:                                               ; preds = %7
  br label %37

37:                                               ; preds = %36
  br i1 true, label %38, label %40

38:                                               ; preds = %37
  %39 = call zeroext i1 @errstart_cold(i32 noundef 21, ptr noundef null) #10
  br i1 %39, label %42, label %49

40:                                               ; preds = %37
  %41 = call zeroext i1 @errstart(i32 noundef 21, ptr noundef null)
  br i1 %41, label %42, label %49

42:                                               ; preds = %40, %38
  %43 = call i32 @errcode(i32 noundef 1088)
  %44 = load ptr, ptr %11, align 8
  %45 = call i32 (ptr, ...) @errmsg(ptr noundef @.str, ptr noundef %44)
  %46 = load ptr, ptr %8, align 8
  %47 = load i32, ptr %14, align 4
  %48 = call i32 @parser_errposition(ptr noundef %46, i32 noundef %47)
  call void @errfinish(ptr noundef @.str.1, i32 noundef 485, ptr noundef @__func__.transformAssignedExpr)
  br label %49

49:                                               ; preds = %42, %40, %38
  unreachable

50:                                               ; No predecessors!
  br label %51

51:                                               ; preds = %50
  br label %52

52:                                               ; preds = %51, %7
  %53 = load ptr, ptr %15, align 8
  %54 = load i32, ptr %12, align 4
  %55 = call i32 @attnumTypeId(ptr noundef %53, i32 noundef %54)
  store i32 %55, ptr %17, align 4
  %56 = load ptr, ptr %15, align 8
  %57 = getelementptr inbounds nuw %struct.RelationData, ptr %56, i32 0, i32 14
  %58 = load ptr, ptr %57, align 8
  %59 = load i32, ptr %12, align 4
  %60 = sub i32 %59, 1
  %61 = call ptr @TupleDescAttr(ptr noundef %58, i32 noundef %60)
  %62 = getelementptr inbounds nuw %struct.FormData_pg_attribute, ptr %61, i32 0, i32 5
  %63 = load i32, ptr %62, align 4
  store i32 %63, ptr %18, align 4
  %64 = load ptr, ptr %15, align 8
  %65 = getelementptr inbounds nuw %struct.RelationData, ptr %64, i32 0, i32 14
  %66 = load ptr, ptr %65, align 8
  %67 = load i32, ptr %12, align 4
  %68 = sub i32 %67, 1
  %69 = call ptr @TupleDescAttr(ptr noundef %66, i32 noundef %68)
  %70 = getelementptr inbounds nuw %struct.FormData_pg_attribute, ptr %69, i32 0, i32 19
  %71 = load i32, ptr %70, align 4
  store i32 %71, ptr %19, align 4
  %72 = load ptr, ptr %9, align 8
  %73 = icmp ne ptr %72, null
  br i1 %73, label %74, label %131

74:                                               ; preds = %52
  %75 = load ptr, ptr %9, align 8
  %76 = getelementptr inbounds nuw %struct.Node, ptr %75, i32 0, i32 0
  %77 = load i32, ptr %76, align 4
  %78 = icmp eq i32 %77, 57
  br i1 %78, label %79, label %131

79:                                               ; preds = %74
  call void @llvm.lifetime.start.p0(i64 8, ptr %21) #8
  %80 = load ptr, ptr %9, align 8
  store ptr %80, ptr %21, align 8
  %81 = load i32, ptr %17, align 4
  %82 = load ptr, ptr %21, align 8
  %83 = getelementptr inbounds nuw %struct.SetToDefault, ptr %82, i32 0, i32 1
  store i32 %81, ptr %83, align 4
  %84 = load i32, ptr %18, align 4
  %85 = load ptr, ptr %21, align 8
  %86 = getelementptr inbounds nuw %struct.SetToDefault, ptr %85, i32 0, i32 2
  store i32 %84, ptr %86, align 4
  %87 = load i32, ptr %19, align 4
  %88 = load ptr, ptr %21, align 8
  %89 = getelementptr inbounds nuw %struct.SetToDefault, ptr %88, i32 0, i32 3
  store i32 %87, ptr %89, align 4
  %90 = load ptr, ptr %13, align 8
  %91 = icmp ne ptr %90, null
  br i1 %91, label %92, label %130

92:                                               ; preds = %79
  %93 = load ptr, ptr %13, align 8
  %94 = call ptr @list_nth_cell(ptr noundef %93, i32 noundef 0)
  %95 = load ptr, ptr %94, align 8
  %96 = getelementptr inbounds nuw %struct.Node, ptr %95, i32 0, i32 0
  %97 = load i32, ptr %96, align 4
  %98 = icmp eq i32 %97, 78
  br i1 %98, label %99, label %114

99:                                               ; preds = %92
  br label %100

100:                                              ; preds = %99
  br i1 true, label %101, label %103

101:                                              ; preds = %100
  %102 = call zeroext i1 @errstart_cold(i32 noundef 21, ptr noundef null) #10
  br i1 %102, label %105, label %111

103:                                              ; preds = %100
  %104 = call zeroext i1 @errstart(i32 noundef 21, ptr noundef null)
  br i1 %104, label %105, label %111

105:                                              ; preds = %103, %101
  %106 = call i32 @errcode(i32 noundef 1088)
  %107 = call i32 (ptr, ...) @errmsg(ptr noundef @.str.2)
  %108 = load ptr, ptr %8, align 8
  %109 = load i32, ptr %14, align 4
  %110 = call i32 @parser_errposition(ptr noundef %108, i32 noundef %109)
  call void @errfinish(ptr noundef @.str.1, i32 noundef 512, ptr noundef @__func__.transformAssignedExpr)
  br label %111

111:                                              ; preds = %105, %103, %101
  unreachable

112:                                              ; No predecessors!
  br label %113

113:                                              ; preds = %112
  br label %129

114:                                              ; preds = %92
  br label %115

115:                                              ; preds = %114
  br i1 true, label %116, label %118

116:                                              ; preds = %115
  %117 = call zeroext i1 @errstart_cold(i32 noundef 21, ptr noundef null) #10
  br i1 %117, label %120, label %126

118:                                              ; preds = %115
  %119 = call zeroext i1 @errstart(i32 noundef 21, ptr noundef null)
  br i1 %119, label %120, label %126

120:                                              ; preds = %118, %116
  %121 = call i32 @errcode(i32 noundef 1088)
  %122 = call i32 (ptr, ...) @errmsg(ptr noundef @.str.3)
  %123 = load ptr, ptr %8, align 8
  %124 = load i32, ptr %14, align 4
  %125 = call i32 @parser_errposition(ptr noundef %123, i32 noundef %124)
  call void @errfinish(ptr noundef @.str.1, i32 noundef 517, ptr noundef @__func__.transformAssignedExpr)
  br label %126

126:                                              ; preds = %120, %118, %116
  unreachable

127:                                              ; No predecessors!
  br label %128

128:                                              ; preds = %127
  br label %129

129:                                              ; preds = %128, %113
  br label %130

130:                                              ; preds = %129, %79
  call void @llvm.lifetime.end.p0(i64 8, ptr %21) #8
  br label %131

131:                                              ; preds = %130, %74, %52
  %132 = load ptr, ptr %9, align 8
  %133 = call i32 @exprType(ptr noundef %132)
  store i32 %133, ptr %16, align 4
  %134 = load ptr, ptr %13, align 8
  %135 = icmp ne ptr %134, null
  br i1 %135, label %136, label %175

136:                                              ; preds = %131
  call void @llvm.lifetime.start.p0(i64 8, ptr %22) #8
  %137 = load ptr, ptr %8, align 8
  %138 = getelementptr inbounds nuw %struct.ParseState, ptr %137, i32 0, i32 17
  %139 = load i8, ptr %138, align 8, !range !4, !noundef !5
  %140 = trunc i8 %139 to i1
  br i1 %140, label %141, label %146

141:                                              ; preds = %136
  %142 = load i32, ptr %17, align 4
  %143 = load i32, ptr %18, align 4
  %144 = load i32, ptr %19, align 4
  %145 = call ptr @makeNullConst(i32 noundef %142, i32 noundef %143, i32 noundef %144)
  store ptr %145, ptr %22, align 8
  br label %162

146:                                              ; preds = %136
  call void @llvm.lifetime.start.p0(i64 8, ptr %23) #8
  %147 = load ptr, ptr %8, align 8
  %148 = getelementptr inbounds nuw %struct.ParseState, ptr %147, i32 0, i32 15
  %149 = load ptr, ptr %148, align 8
  %150 = getelementptr inbounds nuw %struct.ParseNamespaceItem, ptr %149, i32 0, i32 2
  %151 = load i32, ptr %150, align 8
  %152 = load i32, ptr %12, align 4
  %153 = trunc i32 %152 to i16
  %154 = load i32, ptr %17, align 4
  %155 = load i32, ptr %18, align 4
  %156 = load i32, ptr %19, align 4
  %157 = call ptr @makeVar(i32 noundef %151, i16 noundef signext %153, i32 noundef %154, i32 noundef %155, i32 noundef %156, i32 noundef 0)
  store ptr %157, ptr %23, align 8
  %158 = load i32, ptr %14, align 4
  %159 = load ptr, ptr %23, align 8
  %160 = getelementptr inbounds nuw %struct.Var, ptr %159, i32 0, i32 11
  store i32 %158, ptr %160, align 8
  %161 = load ptr, ptr %23, align 8
  store ptr %161, ptr %22, align 8
  call void @llvm.lifetime.end.p0(i64 8, ptr %23) #8
  br label %162

162:                                              ; preds = %146, %141
  %163 = load ptr, ptr %8, align 8
  %164 = load ptr, ptr %22, align 8
  %165 = load ptr, ptr %11, align 8
  %166 = load i32, ptr %17, align 4
  %167 = load i32, ptr %18, align 4
  %168 = load i32, ptr %19, align 4
  %169 = load ptr, ptr %13, align 8
  %170 = load ptr, ptr %13, align 8
  %171 = call ptr @list_head(ptr noundef %170)
  %172 = load ptr, ptr %9, align 8
  %173 = load i32, ptr %14, align 4
  %174 = call ptr @transformAssignmentIndirection(ptr noundef %163, ptr noundef %164, ptr noundef %165, i1 noundef zeroext false, i32 noundef %166, i32 noundef %167, i32 noundef %168, ptr noundef %169, ptr noundef %171, ptr noundef %172, i32 noundef 1, i32 noundef %173)
  store ptr %174, ptr %9, align 8
  call void @llvm.lifetime.end.p0(i64 8, ptr %22) #8
  br label %208

175:                                              ; preds = %131
  call void @llvm.lifetime.start.p0(i64 8, ptr %24) #8
  %176 = load ptr, ptr %9, align 8
  store ptr %176, ptr %24, align 8
  %177 = load ptr, ptr %8, align 8
  %178 = load ptr, ptr %24, align 8
  %179 = load i32, ptr %16, align 4
  %180 = load i32, ptr %17, align 4
  %181 = load i32, ptr %18, align 4
  %182 = call ptr @coerce_to_target_type(ptr noundef %177, ptr noundef %178, i32 noundef %179, i32 noundef %180, i32 noundef %181, i32 noundef 1, i32 noundef 2, i32 noundef -1)
  store ptr %182, ptr %9, align 8
  %183 = load ptr, ptr %9, align 8
  %184 = icmp eq ptr %183, null
  br i1 %184, label %185, label %207

185:                                              ; preds = %175
  br label %186

186:                                              ; preds = %185
  br i1 true, label %187, label %189

187:                                              ; preds = %186
  %188 = call zeroext i1 @errstart_cold(i32 noundef 21, ptr noundef null) #10
  br i1 %188, label %191, label %204

189:                                              ; preds = %186
  %190 = call zeroext i1 @errstart(i32 noundef 21, ptr noundef null)
  br i1 %190, label %191, label %204

191:                                              ; preds = %189, %187
  %192 = call i32 @errcode(i32 noundef 67141764)
  %193 = load ptr, ptr %11, align 8
  %194 = load i32, ptr %17, align 4
  %195 = call ptr @format_type_be(i32 noundef %194)
  %196 = load i32, ptr %16, align 4
  %197 = call ptr @format_type_be(i32 noundef %196)
  %198 = call i32 (ptr, ...) @errmsg(ptr noundef @.str.4, ptr noundef %193, ptr noundef %195, ptr noundef %197)
  %199 = call i32 (ptr, ...) @errhint(ptr noundef @.str.5)
  %200 = load ptr, ptr %8, align 8
  %201 = load ptr, ptr %24, align 8
  %202 = call i32 @exprLocation(ptr noundef %201)
  %203 = call i32 @parser_errposition(ptr noundef %200, i32 noundef %202)
  call void @errfinish(ptr noundef @.str.1, i32 noundef 596, ptr noundef @__func__.transformAssignedExpr)
  br label %204

204:                                              ; preds = %191, %189, %187
  unreachable

205:                                              ; No predecessors!
  br label %206

206:                                              ; preds = %205
  br label %207

207:                                              ; preds = %206, %175
  call void @llvm.lifetime.end.p0(i64 8, ptr %24) #8
  br label %208

208:                                              ; preds = %207, %162
  %209 = load i32, ptr %20, align 4
  %210 = load ptr, ptr %8, align 8
  %211 = getelementptr inbounds nuw %struct.ParseState, ptr %210, i32 0, i32 19
  store i32 %209, ptr %211, align 8
  %212 = load ptr, ptr %9, align 8
  call void @llvm.lifetime.end.p0(i64 4, ptr %20) #8
  call void @llvm.lifetime.end.p0(i64 4, ptr %19) #8
  call void @llvm.lifetime.end.p0(i64 4, ptr %18) #8
  call void @llvm.lifetime.end.p0(i64 4, ptr %17) #8
  call void @llvm.lifetime.end.p0(i64 4, ptr %16) #8
  call void @llvm.lifetime.end.p0(i64 8, ptr %15) #8
  ret ptr %212
}