; Function Attrs: nounwind uwtable
define dso_local ptr @transformAssignedExpr(ptr noundef %0, ptr noundef %1, i32 noundef %2, ptr noundef %3, i32 noundef %4, ptr noundef captures(address_is_null) %5, i32 noundef %6) local_unnamed_addr #0 {
  %8 = getelementptr inbounds nuw i8, ptr %0, i64 104
  %9 = load ptr, ptr %8, align 8
  %10 = getelementptr inbounds nuw i8, ptr %0, i64 144
  %11 = load i32, ptr %10, align 8
  store i32 %2, ptr %10, align 8
  %12 = icmp slt i32 %4, 1
  br i1 %12, label %13, label %18

13:                                               ; preds = %7
  %14 = tail call zeroext i1 @errstart_cold(i32 noundef 21, ptr noundef null) #9
  tail call void @llvm.assume(i1 %14)
  %15 = tail call i32 @errcode(i32 noundef 1088) #8
  %16 = tail call i32 (ptr, ...) @errmsg(ptr noundef nonnull @.str, ptr noundef %3) #8
  %17 = tail call i32 @parser_errposition(ptr noundef nonnull %0, i32 noundef %6) #8
  tail call void @errfinish(ptr noundef nonnull @.str.1, i32 noundef 485, ptr noundef nonnull @__func__.transformAssignedExpr) #8
  unreachable

18:                                               ; preds = %7
  %19 = tail call i32 @attnumTypeId(ptr noundef %9, i32 noundef %4) #8
  %20 = getelementptr inbounds nuw i8, ptr %9, i64 64
  %21 = load ptr, ptr %20, align 8
  %22 = load i32, ptr %21, align 8
  %23 = sext i32 %22 to i64
  %24 = shl nsw i64 %23, 4
  %25 = getelementptr i8, ptr %21, i64 %24
  %26 = getelementptr i8, ptr %25, i64 24
  %27 = zext nneg i32 %4 to i64
  %28 = getelementptr %struct.FormData_pg_attribute, ptr %26, i64 %27
  %29 = getelementptr i8, ptr %28, i64 -24
  %30 = load i32, ptr %29, align 4
  %31 = getelementptr i8, ptr %28, i64 -4
  %32 = load i32, ptr %31, align 4
  %.not = icmp eq ptr %1, null
  br i1 %.not, label %54, label %33

33:                                               ; preds = %18
  %34 = load i32, ptr %1, align 4
  %35 = icmp eq i32 %34, 57
  br i1 %35, label %36, label %54

36:                                               ; preds = %33
  %37 = getelementptr inbounds nuw i8, ptr %1, i64 4
  store i32 %19, ptr %37, align 4
  %38 = getelementptr inbounds nuw i8, ptr %1, i64 8
  store i32 %30, ptr %38, align 4
  %39 = getelementptr inbounds nuw i8, ptr %1, i64 12
  store i32 %32, ptr %39, align 4
  %.not72 = icmp eq ptr %5, null
  br i1 %.not72, label %.thread, label %41

.thread:                                          ; preds = %36
  %40 = tail call i32 @exprType(ptr noundef nonnull %1) #8
  br label %73

41:                                               ; preds = %36
  %42 = getelementptr i8, ptr %5, i64 16
  %.val = load ptr, ptr %42, align 8
  %43 = load ptr, ptr %.val, align 8
  %44 = load i32, ptr %43, align 4
  %45 = icmp eq i32 %44, 78
  %46 = tail call zeroext i1 @errstart_cold(i32 noundef 21, ptr noundef null) #9
  tail call void @llvm.assume(i1 %46)
  %47 = tail call i32 @errcode(i32 noundef 1088) #8
  br i1 %45, label %48, label %51

48:                                               ; preds = %41
  %49 = tail call i32 (ptr, ...) @errmsg(ptr noundef nonnull @.str.2) #8
  %50 = tail call i32 @parser_errposition(ptr noundef nonnull %0, i32 noundef %6) #8
  tail call void @errfinish(ptr noundef nonnull @.str.1, i32 noundef 512, ptr noundef nonnull @__func__.transformAssignedExpr) #8
  unreachable

51:                                               ; preds = %41
  %52 = tail call i32 (ptr, ...) @errmsg(ptr noundef nonnull @.str.3) #8
  %53 = tail call i32 @parser_errposition(ptr noundef nonnull %0, i32 noundef %6) #8
  tail call void @errfinish(ptr noundef nonnull @.str.1, i32 noundef 517, ptr noundef nonnull @__func__.transformAssignedExpr) #8
  unreachable

54:                                               ; preds = %33, %18
  %55 = tail call i32 @exprType(ptr noundef %1) #8
  %.not73 = icmp eq ptr %5, null
  br i1 %.not73, label %73, label %56

56:                                               ; preds = %54
  %57 = getelementptr inbounds nuw i8, ptr %0, i64 128
  %58 = load i8, ptr %57, align 8, !range !4, !noundef !5
  %59 = trunc nuw i8 %58 to i1
  br i1 %59, label %60, label %62

60:                                               ; preds = %56
  %61 = tail call ptr @makeNullConst(i32 noundef %19, i32 noundef %30, i32 noundef %32) #8
  br label %70

62:                                               ; preds = %56
  %63 = getelementptr inbounds nuw i8, ptr %0, i64 112
  %64 = load ptr, ptr %63, align 8
  %65 = getelementptr inbounds nuw i8, ptr %64, i64 16
  %66 = load i32, ptr %65, align 8
  %67 = trunc i32 %4 to i16
  %68 = tail call ptr @makeVar(i32 noundef %66, i16 noundef signext %67, i32 noundef %19, i32 noundef %30, i32 noundef %32, i32 noundef 0) #8
  %69 = getelementptr inbounds nuw i8, ptr %68, i64 48
  store i32 %6, ptr %69, align 8
  br label %70

70:                                               ; preds = %62, %60
  %.067 = phi ptr [ %61, %60 ], [ %68, %62 ]
  %71 = getelementptr i8, ptr %5, i64 16
  %.val74 = load ptr, ptr %71, align 8
  %72 = tail call ptr @transformAssignmentIndirection(ptr noundef nonnull %0, ptr noundef %.067, ptr noundef %3, i1 noundef zeroext false, i32 noundef %19, i32 noundef %30, i32 noundef %32, ptr noundef nonnull %5, ptr noundef %.val74, ptr noundef %1, i32 noundef 1, i32 noundef %6)
  br label %86

73:                                               ; preds = %.thread, %54
  %74 = phi i32 [ %40, %.thread ], [ %55, %54 ]
  %75 = tail call ptr @coerce_to_target_type(ptr noundef nonnull %0, ptr noundef %1, i32 noundef %74, i32 noundef %19, i32 noundef %30, i32 noundef 1, i32 noundef 2, i32 noundef -1) #8
  %76 = icmp eq ptr %75, null
  br i1 %76, label %77, label %86

77:                                               ; preds = %73
  %78 = tail call zeroext i1 @errstart_cold(i32 noundef 21, ptr noundef null) #9
  tail call void @llvm.assume(i1 %78)
  %79 = tail call i32 @errcode(i32 noundef 67141764) #8
  %80 = tail call ptr @format_type_be(i32 noundef %19) #8
  %81 = tail call ptr @format_type_be(i32 noundef %74) #8
  %82 = tail call i32 (ptr, ...) @errmsg(ptr noundef nonnull @.str.4, ptr noundef %3, ptr noundef %80, ptr noundef %81) #8
  %83 = tail call i32 (ptr, ...) @errhint(ptr noundef nonnull @.str.5) #8
  %84 = tail call i32 @exprLocation(ptr noundef %1) #8
  %85 = tail call i32 @parser_errposition(ptr noundef nonnull %0, i32 noundef %84) #8
  tail call void @errfinish(ptr noundef nonnull @.str.1, i32 noundef 596, ptr noundef nonnull @__func__.transformAssignedExpr) #8
  unreachable

86:                                               ; preds = %73, %70
  %.0 = phi ptr [ %72, %70 ], [ %75, %73 ]
  store i32 %11, ptr %10, align 8
  ret ptr %.0
}